target datalayout = "e-m:e-p270:32:32-p271:32:32-p272:64:64-i64:64-i128:128-f80:128-n8:16:32:64-S128"
target triple = "x86_64-unknown-linux-gnu"

%"class.icu_75::UVector32" = type { %"class.icu_75::UObject", i32, i32, i32, ptr }
%"class.icu_75::UObject" = type { ptr }

; Function Attrs: mustprogress nounwind uwtable
define noundef zeroext i1 @_ZNK6icu_759UVector32eqERKS0_(ptr noundef nonnull align 8 dereferenceable(32) %this, ptr noundef nonnull align 8 dereferenceable(32) %other) #0 align 2 {
entry:
  %retval = alloca i1, align 1
  %this.addr = alloca ptr, align 8
  %other.addr = alloca ptr, align 8
  %i = alloca i32, align 4
  store ptr %this, ptr %this.addr, align 8
  store ptr %other, ptr %other.addr, align 8
  %this1 = load ptr, ptr %this.addr, align 8
  %count = getelementptr inbounds %"class.icu_75::UVector32", ptr %this1, i32 0, i32 1
  %0 = load i32, ptr %count, align 8
  %1 = load ptr, ptr %other.addr, align 8
  %count2 = getelementptr inbounds %"class.icu_75::UVector32", ptr %1, i32 0, i32 1
  %2 = load i32, ptr %count2, align 8
  %cmp = icmp ne i32 %0, %2
  br i1 %cmp, label %if.then, label %if.end

if.then:                                          ; preds = %entry
  store i1 false, ptr %retval, align 1
  br label %return

if.end:                                           ; preds = %entry
  store i32 0, ptr %i, align 4
  br label %for.cond

for.cond:                                         ; preds = %for.inc, %if.end
  %3 = load i32, ptr %i, align 4
  %count3 = getelementptr inbounds %"class.icu_75::UVector32", ptr %this1, i32 0, i32 1
  %4 = load i32, ptr %count3, align 8
  %cmp4 = icmp slt i32 %3, %4
  br i1 %cmp4, label %for.body, label %for.end

for.body:                                         ; preds = %for.cond
  %elements = getelementptr inbounds %"class.icu_75::UVector32", ptr %this1, i32 0, i32 4
  %5 = load ptr, ptr %elements, align 8
  %6 = load i32, ptr %i, align 4
  %idxprom = sext i32 %6 to i64
  %arrayidx = getelementptr inbounds i32, ptr %5, i64 %idxprom
  %7 = load i32, ptr %arrayidx, align 4
  %8 = load ptr, ptr %other.addr, align 8
  %elements5 = getelementptr inbounds %"class.icu_75::UVector32", ptr %8, i32 0, i32 4
  %9 = load ptr, ptr %elements5, align 8
  %10 = load i32, ptr %i, align 4
  %idxprom6 = sext i32 %10 to i64
  %arrayidx7 = getelementptr inbounds i32, ptr %9, i64 %idxprom6
  %11 = load i32, ptr %arrayidx7, align 4
  %cmp8 = icmp ne i32 %7, %11
  br i1 %cmp8, label %if.then9, label %if.end10

if.then9:                                         ; preds = %for.body
  store i1 false, ptr %retval, align 1
  br label %return

if.end10:                                         ; preds = %for.body
  br label %for.inc

for.inc:                                          ; preds = %if.end10
  %12 = load i32, ptr %i, align 4
  %inc = add nsw i32 %12, 1
  store i32 %inc, ptr %i, align 4
  br label %for.cond, !llvm.loop !7

for.end:                                          ; preds = %for.cond
  store i1 true, ptr %retval, align 1
  br label %return

return:                                           ; preds = %for.end, %if.then9, %if.then
  %13 = load i1, ptr %retval, align 1
  ret i1 %13
}