; Function Attrs: mustprogress nofree norecurse nosync nounwind willreturn memory(read, inaccessiblemem: none) uwtable
define noundef zeroext i1 @_ZNK6icu_759UVector32eqERKS0_(ptr nocapture noundef nonnull readonly align 8 dereferenceable(32) %this, ptr nocapture noundef nonnull readonly align 8 dereferenceable(32) %other) local_unnamed_addr #7 align 2 {
entry:
  %count = getelementptr inbounds i8, ptr %this, i64 8
  %0 = load i32, ptr %count, align 8
  %count2 = getelementptr inbounds i8, ptr %other, i64 8
  %1 = load i32, ptr %count2, align 8
  %cmp.not = icmp eq i32 %0, %1
  br i1 %cmp.not, label %for.cond.preheader, label %return

for.cond.preheader:                               ; preds = %entry
  %cmp45 = icmp sgt i32 %0, 0
  br i1 %cmp45, label %for.body.lr.ph, label %return

for.body.lr.ph:                                   ; preds = %for.cond.preheader
  %elements = getelementptr inbounds i8, ptr %this, i64 24
  %2 = load ptr, ptr %elements, align 8
  %elements5 = getelementptr inbounds i8, ptr %other, i64 24
  %3 = load ptr, ptr %elements5, align 8
  %wide.trip.count = zext nneg i32 %0 to i64
  br label %for.body

for.body:                                         ; preds = %for.body, %for.body.lr.ph
  %indvars.iv = phi i64 [ 0, %for.body.lr.ph ], [ %indvars.iv.next, %for.body ]
  %arrayidx = getelementptr inbounds i32, ptr %2, i64 %indvars.iv
  %4 = load i32, ptr %arrayidx, align 4
  %arrayidx7 = getelementptr inbounds i32, ptr %3, i64 %indvars.iv
  %5 = load i32, ptr %arrayidx7, align 4
  %cmp8.not = icmp eq i32 %4, %5
  %indvars.iv.next = add nuw nsw i64 %indvars.iv, 1
  %exitcond.not = icmp ne i64 %indvars.iv.next, %wide.trip.count
  %or.cond.not = select i1 %cmp8.not, i1 %exitcond.not, i1 false
  br i1 %or.cond.not, label %for.body, label %return, !llvm.loop !7

return:                                           ; preds = %for.body, %for.cond.preheader, %entry
  %retval.0 = phi i1 [ false, %entry ], [ true, %for.cond.preheader ], [ %cmp8.not, %for.body ]
  ret i1 %retval.0
}